target datalayout = "e-m:e-p270:32:32-p271:32:32-p272:64:64-i64:64-i128:128-f80:128-n8:16:32:64-S128"
target triple = "x86_64-pc-linux-gnu"

%struct._zend_phar_globals = type { %struct._zend_array, %struct._zend_array, ptr, %struct._zend_array, i32, i32, ptr, i32, i32, i32, i32, i8, i8, i8, i32, i32, i32, i32, ptr, ptr, ptr, ptr, ptr, ptr, ptr, ptr, ptr, ptr, ptr, ptr, ptr, ptr, ptr, ptr, ptr, ptr, ptr, ptr, ptr, ptr, ptr, i32, i32, ptr, i32, ptr, i32, ptr, i32, ptr, %struct._zend_array }
%struct._zend_array = type { %struct._zend_refcounted_h, %union.anon.4, i32, %union.anon.6, i32, i32, i32, i32, i64, ptr }
%struct._zend_refcounted_h = type { i32, %union.anon.3 }
%union.anon.3 = type { i32 }
%union.anon.4 = type { i32 }
%union.anon.6 = type { ptr }
%struct._zval_struct = type { %union._zend_value, %union.anon, %union.anon.2 }
%union._zend_value = type { i64 }
%union.anon = type { i32 }
%union.anon.2 = type { i32 }
%struct._phar_metadata_tracker = type { %struct._zval_struct, ptr }
%struct._phar_archive_data = type { ptr, i32, ptr, i32, ptr, i32, [12 x i8], i64, i64, %struct._zend_array, %struct._zend_array, %struct._zend_array, i32, i32, i32, ptr, ptr, i32, i32, i32, ptr, %struct._phar_metadata_tracker, i32, i16 }

@phar_globals = external global %struct._zend_phar_globals, align 8

; Function Attrs: nounwind uwtable
define i32 @phar_resolve_alias(ptr noundef %0, i64 noundef %1, ptr noundef %2, ptr noundef %3) #0 {
  %5 = alloca ptr, align 8
  %6 = alloca ptr, align 8
  %7 = alloca ptr, align 8
  %8 = alloca i64, align 8
  %9 = alloca ptr, align 8
  %10 = alloca i32, align 4
  %11 = alloca ptr, align 8
  %12 = alloca i64, align 8
  %13 = alloca ptr, align 8
  %14 = alloca ptr, align 8
  %15 = alloca ptr, align 8
  store ptr %0, ptr %11, align 8
  store i64 %1, ptr %12, align 8
  store ptr %2, ptr %13, align 8
  store ptr %3, ptr %14, align 8
  %16 = load i32, ptr getelementptr inbounds (%struct._zend_phar_globals, ptr @phar_globals, i32 0, i32 3, i32 1), align 8
  %17 = and i32 %16, 8
  %18 = icmp eq i32 %17, 0
  br i1 %18, label %19, label %48

19:                                               ; preds = %4
  %20 = load ptr, ptr %11, align 8
  %21 = load i64, ptr %12, align 8
  store ptr getelementptr inbounds (%struct._zend_phar_globals, ptr @phar_globals, i32 0, i32 3), ptr %6, align 8
  store ptr %20, ptr %7, align 8
  store i64 %21, ptr %8, align 8
  %22 = load ptr, ptr %6, align 8
  %23 = load ptr, ptr %7, align 8
  %24 = load i64, ptr %8, align 8
  %25 = call ptr @zend_hash_str_find(ptr noundef %22, ptr noundef %23, i64 noundef %24) #11
  store ptr %25, ptr %9, align 8
  %26 = load ptr, ptr %9, align 8
  %27 = icmp ne ptr %26, null
  br i1 %27, label %28, label %34

28:                                               ; preds = %19
  %29 = load ptr, ptr %9, align 8
  %30 = load ptr, ptr %29, align 8
  %31 = icmp ne ptr %30, null
  call void @llvm.assume(i1 %31)
  %32 = load ptr, ptr %9, align 8
  %33 = load ptr, ptr %32, align 8
  store ptr %33, ptr %5, align 8
  br label %35

34:                                               ; preds = %19
  store ptr null, ptr %5, align 8
  br label %35

35:                                               ; preds = %34, %28
  %36 = load ptr, ptr %5, align 8
  store ptr %36, ptr %15, align 8
  %37 = icmp ne ptr null, %36
  br i1 %37, label %38, label %48

38:                                               ; preds = %35
  %39 = load ptr, ptr %15, align 8
  %40 = getelementptr inbounds %struct._phar_archive_data, ptr %39, i32 0, i32 0
  %41 = load ptr, ptr %40, align 8
  %42 = load ptr, ptr %13, align 8
  store ptr %41, ptr %42, align 8
  %43 = load ptr, ptr %15, align 8
  %44 = getelementptr inbounds %struct._phar_archive_data, ptr %43, i32 0, i32 1
  %45 = load i32, ptr %44, align 8
  %46 = zext i32 %45 to i64
  %47 = load ptr, ptr %14, align 8
  store i64 %46, ptr %47, align 8
  store i32 0, ptr %10, align 4
  br label %49

48:                                               ; preds = %35, %4
  store i32 -1, ptr %10, align 4
  br label %49

49:                                               ; preds = %48, %38
  %50 = load i32, ptr %10, align 4
  ret i32 %50
}