; Function Attrs: nounwind uwtable
define noundef i32 @phar_resolve_alias(ptr noundef %0, i64 noundef %1, ptr nocapture noundef writeonly %2, ptr nocapture noundef writeonly %3) local_unnamed_addr #0 {
  %5 = load i32, ptr getelementptr inbounds (%struct._zend_phar_globals, ptr @phar_globals, i64 0, i32 3, i32 1), align 8
  %6 = and i32 %5, 8
  %7 = icmp eq i32 %6, 0
  br i1 %7, label %8, label %.thread

8:                                                ; preds = %4
  %9 = tail call ptr @zend_hash_str_find(ptr noundef nonnull getelementptr inbounds (%struct._zend_phar_globals, ptr @phar_globals, i64 0, i32 3), ptr noundef %0, i64 noundef %1) #15
  %.not = icmp eq ptr %9, null
  br i1 %.not, label %.thread, label %10

10:                                               ; preds = %8
  %11 = load ptr, ptr %9, align 8, !nonnull !4, !noundef !4
  %12 = load ptr, ptr %11, align 8
  store ptr %12, ptr %2, align 8
  %13 = getelementptr inbounds i8, ptr %11, i64 8
  %14 = load i32, ptr %13, align 8
  %15 = zext i32 %14 to i64
  store i64 %15, ptr %3, align 8
  br label %.thread

.thread:                                          ; preds = %8, %4, %10
  %.013 = phi i32 [ 0, %10 ], [ -1, %4 ], [ -1, %8 ]
  ret i32 %.013
}